target datalayout = "e-m:e-p270:32:32-p271:32:32-p272:64:64-i64:64-i128:128-f80:128-n8:16:32:64-S128"
target triple = "x86_64-pc-linux-gnu"

%union.pthread_mutex_t = type { %struct.__pthread_mutex_s }
%struct.__pthread_mutex_s = type { i32, i32, i32, i32, i32, i16, i16, %struct.__pthread_internal_list }
%struct.__pthread_internal_list = type { ptr, ptr }
%struct.cl_fmap = type { ptr, ptr, ptr, i64, i64, i64, i64, i8, i8, i8, i64, i64, i64, i64, ptr, ptr, ptr, ptr, ptr, ptr, ptr, i8, [16 x i8], i8, [20 x i8], i8, [32 x i8], ptr, ptr }

@fmap_mutex = global %union.pthread_mutex_t zeroinitializer, align 8
@.str.31 = private unnamed_addr constant [30 x i8] c"fmap_aging: kernel hates you\0A\00", align 1

; Function Attrs: nounwind uwtable
define internal void @fmap_aging(ptr noundef %0) #0 {
  %2 = alloca ptr, align 8
  %3 = alloca i64, align 8
  %4 = alloca i64, align 8
  %5 = alloca [2048 x i64], align 16
  %6 = alloca i64, align 8
  %7 = alloca i64, align 8
  %8 = alloca i64, align 8
  %9 = alloca i64, align 8
  %10 = alloca ptr, align 8
  %11 = alloca ptr, align 8
  %12 = alloca ptr, align 8
  store ptr %0, ptr %2, align 8
  %13 = load ptr, ptr %2, align 8
  %14 = getelementptr inbounds %struct.cl_fmap, ptr %13, i32 0, i32 7
  %15 = load i8, ptr %14, align 8
  %16 = trunc i8 %15 to i1
  br i1 %16, label %18, label %17

17:                                               ; preds = %1
  br label %256

18:                                               ; preds = %1
  %19 = load ptr, ptr %2, align 8
  %20 = getelementptr inbounds %struct.cl_fmap, ptr %19, i32 0, i32 6
  %21 = load i64, ptr %20, align 8
  %22 = load ptr, ptr %2, align 8
  %23 = getelementptr inbounds %struct.cl_fmap, ptr %22, i32 0, i32 5
  %24 = load i64, ptr %23, align 8
  %25 = mul i64 %21, %24
  %26 = icmp ugt i64 %25, 8388608
  br i1 %26, label %27, label %256

27:                                               ; preds = %18
  store i64 0, ptr %4, align 8
  %28 = load ptr, ptr %2, align 8
  %29 = getelementptr inbounds %struct.cl_fmap, ptr %28, i32 0, i32 6
  %30 = load i64, ptr %29, align 8
  %31 = load ptr, ptr %2, align 8
  %32 = getelementptr inbounds %struct.cl_fmap, ptr %31, i32 0, i32 5
  %33 = load i64, ptr %32, align 8
  %34 = udiv i64 4194304, %33
  %35 = sub i64 %30, %34
  %36 = icmp ult i64 2048, %35
  br i1 %36, label %37, label %38

37:                                               ; preds = %27
  br label %47

38:                                               ; preds = %27
  %39 = load ptr, ptr %2, align 8
  %40 = getelementptr inbounds %struct.cl_fmap, ptr %39, i32 0, i32 6
  %41 = load i64, ptr %40, align 8
  %42 = load ptr, ptr %2, align 8
  %43 = getelementptr inbounds %struct.cl_fmap, ptr %42, i32 0, i32 5
  %44 = load i64, ptr %43, align 8
  %45 = udiv i64 4194304, %44
  %46 = sub i64 %41, %45
  br label %47

47:                                               ; preds = %38, %37
  %48 = phi i64 [ 2048, %37 ], [ %46, %38 ]
  %49 = sub i64 %48, 1
  store i64 %49, ptr %6, align 8
  store i64 0, ptr %3, align 8
  br label %50

50:                                               ; preds = %159, %47
  %51 = load i64, ptr %3, align 8
  %52 = load ptr, ptr %2, align 8
  %53 = getelementptr inbounds %struct.cl_fmap, ptr %52, i32 0, i32 4
  %54 = load i64, ptr %53, align 8
  %55 = icmp ult i64 %51, %54
  br i1 %55, label %56, label %162

56:                                               ; preds = %50
  %57 = load ptr, ptr %2, align 8
  %58 = getelementptr inbounds %struct.cl_fmap, ptr %57, i32 0, i32 27
  %59 = load ptr, ptr %58, align 8
  %60 = load i64, ptr %3, align 8
  %61 = getelementptr inbounds i64, ptr %59, i64 %60
  %62 = load i64, ptr %61, align 8
  store i64 %62, ptr %7, align 8
  %63 = load i64, ptr %7, align 8
  %64 = and i64 %63, 3221225472
  %65 = icmp eq i64 %64, 1073741824
  br i1 %65, label %66, label %158

66:                                               ; preds = %56
  %67 = load i64, ptr %7, align 8
  %68 = and i64 %67, 1073741823
  %69 = icmp ne i64 %68, 0
  br i1 %69, label %70, label %78

70:                                               ; preds = %66
  %71 = load ptr, ptr %2, align 8
  %72 = getelementptr inbounds %struct.cl_fmap, ptr %71, i32 0, i32 27
  %73 = load ptr, ptr %72, align 8
  %74 = load i64, ptr %3, align 8
  %75 = getelementptr inbounds i64, ptr %73, i64 %74
  %76 = load i64, ptr %75, align 8
  %77 = add i64 %76, -1
  store i64 %77, ptr %75, align 8
  br label %78

78:                                               ; preds = %70, %66
  %79 = load i64, ptr %4, align 8
  %80 = icmp ne i64 %79, 0
  br i1 %80, label %86, label %81

81:                                               ; preds = %78
  %82 = load i64, ptr %3, align 8
  %83 = getelementptr inbounds [2048 x i64], ptr %5, i64 0, i64 0
  store i64 %82, ptr %83, align 16
  %84 = load i64, ptr %4, align 8
  %85 = add i64 %84, 1
  store i64 %85, ptr %4, align 8
  br label %157

86:                                               ; preds = %78
  %87 = load i64, ptr %6, align 8
  %88 = load i64, ptr %4, align 8
  %89 = icmp ult i64 %87, %88
  br i1 %89, label %90, label %92

90:                                               ; preds = %86
  %91 = load i64, ptr %6, align 8
  br label %94

92:                                               ; preds = %86
  %93 = load i64, ptr %4, align 8
  br label %94

94:                                               ; preds = %92, %90
  %95 = phi i64 [ %91, %90 ], [ %93, %92 ]
  %96 = sub i64 %95, 1
  store i64 %96, ptr %8, align 8
  %97 = load ptr, ptr %2, align 8
  %98 = getelementptr inbounds %struct.cl_fmap, ptr %97, i32 0, i32 27
  %99 = load ptr, ptr %98, align 8
  %100 = load i64, ptr %3, align 8
  %101 = getelementptr inbounds i64, ptr %99, i64 %100
  %102 = load i64, ptr %101, align 8
  %103 = and i64 %102, 1073741823
  store i64 %103, ptr %9, align 8
  %104 = load i64, ptr %4, align 8
  %105 = load i64, ptr %6, align 8
  %106 = icmp ule i64 %104, %105
  br i1 %106, label %119, label %107

107:                                              ; preds = %94
  %108 = load ptr, ptr %2, align 8
  %109 = getelementptr inbounds %struct.cl_fmap, ptr %108, i32 0, i32 27
  %110 = load ptr, ptr %109, align 8
  %111 = load i64, ptr %6, align 8
  %112 = getelementptr inbounds [2048 x i64], ptr %5, i64 0, i64 %111
  %113 = load i64, ptr %112, align 8
  %114 = getelementptr inbounds i64, ptr %110, i64 %113
  %115 = load i64, ptr %114, align 8
  %116 = and i64 %115, 1073741823
  %117 = load i64, ptr %9, align 8
  %118 = icmp ugt i64 %116, %117
  br i1 %118, label %119, label %156

119:                                              ; preds = %107, %94
  br label %120

120:                                              ; preds = %143, %119
  %121 = load ptr, ptr %2, align 8
  %122 = getelementptr inbounds %struct.cl_fmap, ptr %121, i32 0, i32 27
  %123 = load ptr, ptr %122, align 8
  %124 = load i64, ptr %8, align 8
  %125 = getelementptr inbounds [2048 x i64], ptr %5, i64 0, i64 %124
  %126 = load i64, ptr %125, align 8
  %127 = getelementptr inbounds i64, ptr %123, i64 %126
  %128 = load i64, ptr %127, align 8
  %129 = and i64 %128, 1073741823
  %130 = load i64, ptr %9, align 8
  %131 = icmp ugt i64 %129, %130
  br i1 %131, label %132, label %144

132:                                              ; preds = %120
  %133 = load i64, ptr %8, align 8
  %134 = getelementptr inbounds [2048 x i64], ptr %5, i64 0, i64 %133
  %135 = load i64, ptr %134, align 8
  %136 = load i64, ptr %8, align 8
  %137 = add i64 %136, 1
  %138 = getelementptr inbounds [2048 x i64], ptr %5, i64 0, i64 %137
  store i64 %135, ptr %138, align 8
  %139 = load i64, ptr %8, align 8
  %140 = add i64 %139, -1
  store i64 %140, ptr %8, align 8
  %141 = icmp ne i64 %139, 0
  br i1 %141, label %143, label %142

142:                                              ; preds = %132
  br label %144

143:                                              ; preds = %132
  br label %120

144:                                              ; preds = %142, %120
  %145 = load i64, ptr %3, align 8
  %146 = load i64, ptr %8, align 8
  %147 = add i64 %146, 1
  %148 = getelementptr inbounds [2048 x i64], ptr %5, i64 0, i64 %147
  store i64 %145, ptr %148, align 8
  %149 = load i64, ptr %4, align 8
  %150 = load i64, ptr %6, align 8
  %151 = icmp ule i64 %149, %150
  br i1 %151, label %152, label %155

152:                                              ; preds = %144
  %153 = load i64, ptr %4, align 8
  %154 = add i64 %153, 1
  store i64 %154, ptr %4, align 8
  br label %155

155:                                              ; preds = %152, %144
  br label %156

156:                                              ; preds = %155, %107
  br label %157

157:                                              ; preds = %156, %81
  br label %158

158:                                              ; preds = %157, %56
  br label %159

159:                                              ; preds = %158
  %160 = load i64, ptr %3, align 8
  %161 = add i64 %160, 1
  store i64 %161, ptr %3, align 8
  br label %50

162:                                              ; preds = %50
  %163 = load i64, ptr %4, align 8
  %164 = icmp ne i64 %163, 0
  br i1 %164, label %165, label %255

165:                                              ; preds = %162
  store ptr null, ptr %10, align 8
  store ptr null, ptr %11, align 8
  store i64 0, ptr %3, align 8
  br label %166

166:                                              ; preds = %230, %165
  %167 = load i64, ptr %3, align 8
  %168 = load i64, ptr %4, align 8
  %169 = icmp ult i64 %167, %168
  br i1 %169, label %170, label %233

170:                                              ; preds = %166
  %171 = load ptr, ptr %2, align 8
  %172 = getelementptr inbounds %struct.cl_fmap, ptr %171, i32 0, i32 2
  %173 = load ptr, ptr %172, align 8
  %174 = load i64, ptr %3, align 8
  %175 = getelementptr inbounds [2048 x i64], ptr %5, i64 0, i64 %174
  %176 = load i64, ptr %175, align 8
  %177 = load ptr, ptr %2, align 8
  %178 = getelementptr inbounds %struct.cl_fmap, ptr %177, i32 0, i32 5
  %179 = load i64, ptr %178, align 8
  %180 = mul i64 %176, %179
  %181 = getelementptr inbounds i8, ptr %173, i64 %180
  store ptr %181, ptr %12, align 8
  %182 = load ptr, ptr %2, align 8
  %183 = getelementptr inbounds %struct.cl_fmap, ptr %182, i32 0, i32 27
  %184 = load ptr, ptr %183, align 8
  %185 = load i64, ptr %3, align 8
  %186 = getelementptr inbounds [2048 x i64], ptr %5, i64 0, i64 %185
  %187 = load i64, ptr %186, align 8
  %188 = getelementptr inbounds i64, ptr %184, i64 %187
  store i64 2147483648, ptr %188, align 8
  %189 = load ptr, ptr %10, align 8
  %190 = icmp ne ptr %189, null
  br i1 %190, label %191, label %201

191:                                              ; preds = %170
  %192 = load ptr, ptr %12, align 8
  %193 = load ptr, ptr %10, align 8
  %194 = icmp eq ptr %192, %193
  br i1 %194, label %195, label %201

195:                                              ; preds = %191
  %196 = load ptr, ptr %12, align 8
  %197 = load ptr, ptr %2, align 8
  %198 = getelementptr inbounds %struct.cl_fmap, ptr %197, i32 0, i32 5
  %199 = load i64, ptr %198, align 8
  %200 = getelementptr inbounds i8, ptr %196, i64 %199
  store ptr %200, ptr %10, align 8
  br label %230

201:                                              ; preds = %191, %170
  %202 = load ptr, ptr %10, align 8
  %203 = icmp ne ptr %202, null
  br i1 %203, label %211, label %204

204:                                              ; preds = %201
  %205 = load ptr, ptr %12, align 8
  store ptr %205, ptr %11, align 8
  %206 = load ptr, ptr %12, align 8
  %207 = load ptr, ptr %2, align 8
  %208 = getelementptr inbounds %struct.cl_fmap, ptr %207, i32 0, i32 5
  %209 = load i64, ptr %208, align 8
  %210 = getelementptr inbounds i8, ptr %206, i64 %209
  store ptr %210, ptr %10, align 8
  br label %230

211:                                              ; preds = %201
  %212 = call i32 @pthread_mutex_lock(ptr noundef @fmap_mutex) #8
  %213 = load ptr, ptr %11, align 8
  %214 = load ptr, ptr %10, align 8
  %215 = load ptr, ptr %11, align 8
  %216 = ptrtoint ptr %214 to i64
  %217 = ptrtoint ptr %215 to i64
  %218 = sub i64 %216, %217
  %219 = call ptr @mmap(ptr noundef %213, i64 noundef %218, i32 noundef 3, i32 noundef 50, i32 noundef -1, i64 noundef 0) #8
  %220 = icmp eq ptr %219, inttoptr (i64 -1 to ptr)
  br i1 %220, label %221, label %222

221:                                              ; preds = %211
  call void (ptr, ...) @cli_dbgmsg(ptr noundef @.str.31)
  br label %222

222:                                              ; preds = %221, %211
  %223 = call i32 @pthread_mutex_unlock(ptr noundef @fmap_mutex) #8
  %224 = load ptr, ptr %12, align 8
  store ptr %224, ptr %11, align 8
  %225 = load ptr, ptr %12, align 8
  %226 = load ptr, ptr %2, align 8
  %227 = getelementptr inbounds %struct.cl_fmap, ptr %226, i32 0, i32 5
  %228 = load i64, ptr %227, align 8
  %229 = getelementptr inbounds i8, ptr %225, i64 %228
  store ptr %229, ptr %10, align 8
  br label %230

230:                                              ; preds = %222, %204, %195
  %231 = load i64, ptr %3, align 8
  %232 = add i64 %231, 1
  store i64 %232, ptr %3, align 8
  br label %166

233:                                              ; preds = %166
  %234 = load ptr, ptr %10, align 8
  %235 = icmp ne ptr %234, null
  br i1 %235, label %236, label %249

236:                                              ; preds = %233
  %237 = call i32 @pthread_mutex_lock(ptr noundef @fmap_mutex) #8
  %238 = load ptr, ptr %11, align 8
  %239 = load ptr, ptr %10, align 8
  %240 = load ptr, ptr %11, align 8
  %241 = ptrtoint ptr %239 to i64
  %242 = ptrtoint ptr %240 to i64
  %243 = sub i64 %241, %242
  %244 = call ptr @mmap(ptr noundef %238, i64 noundef %243, i32 noundef 3, i32 noundef 50, i32 noundef -1, i64 noundef 0) #8
  %245 = icmp eq ptr %244, inttoptr (i64 -1 to ptr)
  br i1 %245, label %246, label %247

246:                                              ; preds = %236
  call void (ptr, ...) @cli_dbgmsg(ptr noundef @.str.31)
  br label %247

247:                                              ; preds = %246, %236
  %248 = call i32 @pthread_mutex_unlock(ptr noundef @fmap_mutex) #8
  br label %249

249:                                              ; preds = %247, %233
  %250 = load i64, ptr %4, align 8
  %251 = load ptr, ptr %2, align 8
  %252 = getelementptr inbounds %struct.cl_fmap, ptr %251, i32 0, i32 6
  %253 = load i64, ptr %252, align 8
  %254 = sub i64 %253, %250
  store i64 %254, ptr %252, align 8
  br label %255

255:                                              ; preds = %249, %162
  br label %256

256:                                              ; preds = %255, %18, %17
  ret void
}