; Function Attrs: nounwind uwtable
define internal fastcc void @fmap_aging(ptr nocapture noundef %0) unnamed_addr #0 {
  %2 = alloca [2048 x i64], align 16
  %3 = getelementptr inbounds i8, ptr %0, i64 56
  %4 = load i8, ptr %3, align 8
  %5 = trunc i8 %4 to i1
  br i1 %5, label %6, label %._crit_edge.thread

6:                                                ; preds = %1
  %7 = getelementptr inbounds i8, ptr %0, i64 48
  %8 = load i64, ptr %7, align 8
  %9 = getelementptr inbounds i8, ptr %0, i64 40
  %10 = load i64, ptr %9, align 8
  %11 = mul i64 %10, %8
  %12 = icmp ugt i64 %11, 8388608
  br i1 %12, label %13, label %._crit_edge.thread

13:                                               ; preds = %6
  %14 = udiv i64 4194304, %10
  %15 = sub i64 %8, %14
  %spec.select = tail call i64 @llvm.umin.i64(i64 %15, i64 2048)
  %16 = add nsw i64 %spec.select, -1
  %17 = getelementptr inbounds i8, ptr %0, i64 32
  %18 = load i64, ptr %17, align 8
  %.not93 = icmp eq i64 %18, 0
  br i1 %.not93, label %._crit_edge.thread, label %.lr.ph

.lr.ph:                                           ; preds = %13
  %19 = getelementptr inbounds i8, ptr %0, i64 224
  %20 = getelementptr inbounds [2048 x i64], ptr %2, i64 0, i64 %16
  br label %21

21:                                               ; preds = %.lr.ph, %57
  %.089 = phi i64 [ 0, %.lr.ph ], [ %58, %57 ]
  %.07488 = phi i64 [ 0, %.lr.ph ], [ %.175, %57 ]
  %22 = load ptr, ptr %19, align 8
  %23 = getelementptr inbounds i64, ptr %22, i64 %.089
  %24 = load i64, ptr %23, align 8
  %25 = and i64 %24, 3221225472
  %26 = icmp eq i64 %25, 1073741824
  br i1 %26, label %27, label %57

27:                                               ; preds = %21
  %28 = and i64 %24, 1073741823
  %.not83 = icmp eq i64 %28, 0
  br i1 %.not83, label %31, label %29

29:                                               ; preds = %27
  %30 = add nsw i64 %24, -1
  store i64 %30, ptr %23, align 8
  br label %31

31:                                               ; preds = %29, %27
  %.not84 = icmp eq i64 %.07488, 0
  br i1 %.not84, label %32, label %33

32:                                               ; preds = %31
  store i64 %.089, ptr %2, align 16
  br label %57

33:                                               ; preds = %31
  %34 = tail call i64 @llvm.umin.i64(i64 %16, i64 %.07488)
  %35 = load ptr, ptr %19, align 8
  %36 = getelementptr inbounds i64, ptr %35, i64 %.089
  %37 = load i64, ptr %36, align 8
  %38 = and i64 %37, 1073741823
  %.not85 = icmp ule i64 %.07488, %16
  br i1 %.not85, label %.preheader96, label %39

39:                                               ; preds = %33
  %40 = load i64, ptr %20, align 8
  %41 = getelementptr inbounds i64, ptr %35, i64 %40
  %42 = load i64, ptr %41, align 8
  %43 = and i64 %42, 1073741823
  %44 = icmp ugt i64 %43, %38
  br i1 %44, label %.preheader96, label %57

.preheader96:                                     ; preds = %39, %33
  br label %45

45:                                               ; preds = %.preheader96, %52
  %.076.in = phi i64 [ %.076, %52 ], [ %34, %.preheader96 ]
  %.076 = add i64 %.076.in, -1
  %46 = getelementptr inbounds [2048 x i64], ptr %2, i64 0, i64 %.076
  %47 = load i64, ptr %46, align 8
  %48 = getelementptr inbounds i64, ptr %35, i64 %47
  %49 = load i64, ptr %48, align 8
  %50 = and i64 %49, 1073741823
  %51 = icmp ugt i64 %50, %38
  br i1 %51, label %52, label %54

52:                                               ; preds = %45
  %53 = getelementptr inbounds [2048 x i64], ptr %2, i64 0, i64 %.076.in
  store i64 %47, ptr %53, align 8
  %.not86 = icmp eq i64 %.076, 0
  br i1 %.not86, label %54, label %45

54:                                               ; preds = %52, %45
  %.177 = phi i64 [ 0, %52 ], [ %.076.in, %45 ]
  %55 = getelementptr inbounds [2048 x i64], ptr %2, i64 0, i64 %.177
  store i64 %.089, ptr %55, align 8
  %56 = zext i1 %.not85 to i64
  %spec.select87 = add i64 %.07488, %56
  br label %57

57:                                               ; preds = %54, %21, %39, %32
  %.175 = phi i64 [ %.07488, %39 ], [ 1, %32 ], [ %.07488, %21 ], [ %spec.select87, %54 ]
  %58 = add nuw i64 %.089, 1
  %59 = load i64, ptr %17, align 8
  %60 = icmp ult i64 %58, %59
  br i1 %60, label %21, label %._crit_edge

._crit_edge:                                      ; preds = %57
  %.not = icmp eq i64 %.175, 0
  br i1 %.not, label %._crit_edge.thread, label %.preheader

.preheader:                                       ; preds = %._crit_edge
  %61 = getelementptr inbounds i8, ptr %0, i64 16
  %62 = getelementptr inbounds i8, ptr %0, i64 224
  %.pre = load i64, ptr %9, align 8
  br label %63

63:                                               ; preds = %.preheader, %92
  %64 = phi i64 [ %.pre, %.preheader ], [ %93, %92 ]
  %.192 = phi i64 [ 0, %.preheader ], [ %94, %92 ]
  %.07091 = phi ptr [ null, %.preheader ], [ %.171, %92 ]
  %.07290 = phi ptr [ null, %.preheader ], [ %.173, %92 ]
  %65 = load ptr, ptr %61, align 8
  %66 = getelementptr inbounds [2048 x i64], ptr %2, i64 0, i64 %.192
  %67 = load i64, ptr %66, align 8
  %68 = mul i64 %64, %67
  %69 = getelementptr inbounds i8, ptr %65, i64 %68
  %70 = load ptr, ptr %62, align 8
  %71 = getelementptr inbounds i64, ptr %70, i64 %67
  store i64 2147483648, ptr %71, align 8
  %.not82 = icmp ne ptr %.07290, null
  %72 = icmp eq ptr %69, %.07290
  %or.cond = select i1 %.not82, i1 %72, i1 false
  br i1 %or.cond, label %73, label %76

73:                                               ; preds = %63
  %74 = load i64, ptr %9, align 8
  %75 = getelementptr inbounds i8, ptr %.07290, i64 %74
  br label %92

76:                                               ; preds = %63
  br i1 %.not82, label %80, label %77

77:                                               ; preds = %76
  %78 = load i64, ptr %9, align 8
  %79 = getelementptr inbounds i8, ptr %69, i64 %78
  br label %92

80:                                               ; preds = %76
  %81 = tail call i32 @pthread_mutex_lock(ptr noundef nonnull @fmap_mutex) #18
  %82 = ptrtoint ptr %.07290 to i64
  %83 = ptrtoint ptr %.07091 to i64
  %84 = sub i64 %82, %83
  %85 = tail call ptr @mmap(ptr noundef %.07091, i64 noundef %84, i32 noundef 3, i32 noundef 50, i32 noundef -1, i64 noundef 0) #18
  %86 = icmp eq ptr %85, inttoptr (i64 -1 to ptr)
  br i1 %86, label %87, label %88

87:                                               ; preds = %80
  tail call void (ptr, ...) @cli_dbgmsg(ptr noundef nonnull @.str.31) #18
  br label %88

88:                                               ; preds = %87, %80
  %89 = tail call i32 @pthread_mutex_unlock(ptr noundef nonnull @fmap_mutex) #18
  %90 = load i64, ptr %9, align 8
  %91 = getelementptr inbounds i8, ptr %69, i64 %90
  br label %92

92:                                               ; preds = %88, %77, %73
  %93 = phi i64 [ %74, %73 ], [ %90, %88 ], [ %78, %77 ]
  %.173 = phi ptr [ %75, %73 ], [ %91, %88 ], [ %79, %77 ]
  %.171 = phi ptr [ %.07091, %73 ], [ %69, %88 ], [ %69, %77 ]
  %94 = add nuw i64 %.192, 1
  %exitcond.not = icmp eq i64 %94, %.175
  br i1 %exitcond.not, label %95, label %63

95:                                               ; preds = %92
  %.not81 = icmp eq ptr %.173, null
  br i1 %.not81, label %106, label %96

96:                                               ; preds = %95
  %97 = tail call i32 @pthread_mutex_lock(ptr noundef nonnull @fmap_mutex) #18
  %98 = ptrtoint ptr %.173 to i64
  %99 = ptrtoint ptr %.171 to i64
  %100 = sub i64 %98, %99
  %101 = tail call ptr @mmap(ptr noundef %.171, i64 noundef %100, i32 noundef 3, i32 noundef 50, i32 noundef -1, i64 noundef 0) #18
  %102 = icmp eq ptr %101, inttoptr (i64 -1 to ptr)
  br i1 %102, label %103, label %104

103:                                              ; preds = %96
  tail call void (ptr, ...) @cli_dbgmsg(ptr noundef nonnull @.str.31) #18
  br label %104

104:                                              ; preds = %103, %96
  %105 = tail call i32 @pthread_mutex_unlock(ptr noundef nonnull @fmap_mutex) #18
  br label %106

106:                                              ; preds = %104, %95
  %107 = load i64, ptr %7, align 8
  %108 = sub i64 %107, %.175
  store i64 %108, ptr %7, align 8
  br label %._crit_edge.thread

._crit_edge.thread:                               ; preds = %13, %._crit_edge, %106, %1, %6
  ret void
}